; Function Attrs: mustprogress uwtable
define void @_ZN6colvar12selfcoordnum10calc_valueEv(ptr noundef nonnull align 8 dereferenceable(1656) initializes((600, 608)) %0) unnamed_addr #2 align 2 {
  %2 = getelementptr inbounds nuw i8, ptr %0, i64 600
  store double 0.000000e+00, ptr %2, align 8, !tbaa !124
  %3 = getelementptr inbounds nuw i8, ptr %0, i64 368
  %4 = load ptr, ptr %3, align 8, !tbaa !115
  %5 = getelementptr inbounds nuw i8, ptr %4, i64 225
  %6 = load i8, ptr %5, align 1, !tbaa !116, !range !100, !noundef !101
  %7 = trunc nuw i8 %6 to i1
  br i1 %7, label %8, label %10

8:                                                ; preds = %1
  %9 = tail call noundef i32 @_ZN6colvar12selfcoordnum20compute_selfcoordnumILi1EEEiv(ptr noundef nonnull align 8 dereferenceable(1656) %0)
  br label %12

10:                                               ; preds = %1
  %11 = tail call noundef i32 @_ZN6colvar12selfcoordnum20compute_selfcoordnumILi0EEEiv(ptr noundef nonnull align 8 dereferenceable(1656) %0)
  br label %12

12:                                               ; preds = %10, %8
  ret void
}